

Microchip MPLAB XC8 Assembler V2.35 build 20211206165544 
                                                                                               Mon May 16 19:23:44 2022

Microchip MPLAB XC8 C Compiler v2.35 (Free license) build 20211206165544 Og1 
     1                           	processor	16F887
     2                           	pagewidth 120
     3                           	opt	flic
     4                           	psect	cinit,global,class=CODE,merge=1,delta=2
     5                           	psect	bssCOMMON,global,class=COMMON,space=1,delta=1,noexec
     6                           	psect	cstackCOMMON,global,class=COMMON,space=1,delta=1,noexec
     7                           	psect	cstackBANK0,global,class=BANK0,space=1,delta=1,noexec
     8                           	psect	maintext,global,class=CODE,split=1,delta=2
     9                           	psect	text1,local,class=CODE,merge=1,delta=2
    10                           	psect	text2,local,class=CODE,merge=1,delta=2
    11                           	psect	intentry,global,class=CODE,delta=2
    12                           	psect	text3,local,class=CODE,merge=1,delta=2
    13                           	psect	text4,local,class=CODE,merge=1,delta=2
    14                           	psect	idloc,global,abs,ovrld,class=IDLOC,space=5,delta=2,noexec
    15                           	psect	config,global,abs,ovrld,class=CONFIG,space=4,delta=2,noexec
    16                           	dabs	1,0x7E,2
    17  0000                     
    18                           ; Version 2.40
    19                           ; Generated 17/11/2021 GMT
    20                           ; 
    21                           ; Copyright © 2021, Microchip Technology Inc. and its subsidiaries ("Microchip")
    22                           ; All rights reserved.
    23                           ; 
    24                           ; This software is developed by Microchip Technology Inc. and its subsidiaries ("Microch
      +                          ip").
    25                           ; 
    26                           ; Redistribution and use in source and binary forms, with or without modification, are
    27                           ; permitted provided that the following conditions are met:
    28                           ; 
    29                           ;     1. Redistributions of source code must retain the above copyright notice, this lis
      +                          t of
    30                           ;        conditions and the following disclaimer.
    31                           ; 
    32                           ;     2. Redistributions in binary form must reproduce the above copyright notice, this 
      +                          list
    33                           ;        of conditions and the following disclaimer in the documentation and/or other
    34                           ;        materials provided with the distribution. Publication is not required when
    35                           ;        this file is used in an embedded application.
    36                           ; 
    37                           ;     3. Microchip's name may not be used to endorse or promote products derived from th
      +                          is
    38                           ;        software without specific prior written permission.
    39                           ; 
    40                           ; THIS SOFTWARE IS PROVIDED BY MICROCHIP "AS IS" AND ANY EXPRESS OR IMPLIED WARRANTIES,
    41                           ; INCLUDING, BUT NOT LIMITED TO, THE IMPLIED WARRANTIES OF MERCHANTABILITY AND FITNESS F
      +                          OR
    42                           ; PURPOSE ARE DISCLAIMED.  IN NO EVENT SHALL MICROCHIP BE LIABLE FOR ANY DIRECT, INDIREC
      +                          T,
    43                           ; INCIDENTAL, SPECIAL, EXEMPLARY, OR CONSEQUENTIAL DAMAGES (INCLUDING BUT NOT LIMITED TO
    44                           ; PROCUREMENT OF SUBSTITUTE GOODS OR SERVICES; LOSS OF USE, DATA OR PROFITS; OR BUSINESS
    45                           ; INTERRUPTION) HOWSOEVER CAUSED AND ON ANY THEORY OF LIABILITY, WHETHER IN CONTRACT, ST
      +                          RICT
    46                           ; LIABILITY, OR TORT (INCLUDING NEGLIGENCE OR OTHERWISE) ARISING IN ANY WAY OUT OF THE U
      +                          SE OF
    47                           ; THIS SOFTWARE, EVEN IF ADVISED OF THE POSSIBILITY OF SUCH DAMAGE.
    48                           ; 
    49                           ; 
    50                           ; Code-generator required, PIC16F887 Definitions
    51                           ; 
    52                           ; SFR Addresses
    53  0000                     	;# 
    54  0001                     	;# 
    55  0002                     	;# 
    56  0003                     	;# 
    57  0004                     	;# 
    58  0005                     	;# 
    59  0006                     	;# 
    60  0007                     	;# 
    61  0008                     	;# 
    62  0009                     	;# 
    63  000A                     	;# 
    64  000B                     	;# 
    65  000C                     	;# 
    66  000D                     	;# 
    67  000E                     	;# 
    68  000E                     	;# 
    69  000F                     	;# 
    70  0010                     	;# 
    71  0011                     	;# 
    72  0012                     	;# 
    73  0013                     	;# 
    74  0014                     	;# 
    75  0015                     	;# 
    76  0015                     	;# 
    77  0016                     	;# 
    78  0017                     	;# 
    79  0018                     	;# 
    80  0019                     	;# 
    81  001A                     	;# 
    82  001B                     	;# 
    83  001B                     	;# 
    84  001C                     	;# 
    85  001D                     	;# 
    86  001E                     	;# 
    87  001F                     	;# 
    88  0081                     	;# 
    89  0085                     	;# 
    90  0086                     	;# 
    91  0087                     	;# 
    92  0088                     	;# 
    93  0089                     	;# 
    94  008C                     	;# 
    95  008D                     	;# 
    96  008E                     	;# 
    97  008F                     	;# 
    98  0090                     	;# 
    99  0091                     	;# 
   100  0092                     	;# 
   101  0093                     	;# 
   102  0093                     	;# 
   103  0093                     	;# 
   104  0094                     	;# 
   105  0095                     	;# 
   106  0096                     	;# 
   107  0097                     	;# 
   108  0098                     	;# 
   109  0099                     	;# 
   110  009A                     	;# 
   111  009B                     	;# 
   112  009C                     	;# 
   113  009D                     	;# 
   114  009E                     	;# 
   115  009F                     	;# 
   116  0105                     	;# 
   117  0107                     	;# 
   118  0108                     	;# 
   119  0109                     	;# 
   120  010C                     	;# 
   121  010C                     	;# 
   122  010D                     	;# 
   123  010E                     	;# 
   124  010F                     	;# 
   125  0185                     	;# 
   126  0187                     	;# 
   127  0188                     	;# 
   128  0189                     	;# 
   129  018C                     	;# 
   130  018D                     	;# 
   131  0000                     	;# 
   132  0001                     	;# 
   133  0002                     	;# 
   134  0003                     	;# 
   135  0004                     	;# 
   136  0005                     	;# 
   137  0006                     	;# 
   138  0007                     	;# 
   139  0008                     	;# 
   140  0009                     	;# 
   141  000A                     	;# 
   142  000B                     	;# 
   143  000C                     	;# 
   144  000D                     	;# 
   145  000E                     	;# 
   146  000E                     	;# 
   147  000F                     	;# 
   148  0010                     	;# 
   149  0011                     	;# 
   150  0012                     	;# 
   151  0013                     	;# 
   152  0014                     	;# 
   153  0015                     	;# 
   154  0015                     	;# 
   155  0016                     	;# 
   156  0017                     	;# 
   157  0018                     	;# 
   158  0019                     	;# 
   159  001A                     	;# 
   160  001B                     	;# 
   161  001B                     	;# 
   162  001C                     	;# 
   163  001D                     	;# 
   164  001E                     	;# 
   165  001F                     	;# 
   166  0081                     	;# 
   167  0085                     	;# 
   168  0086                     	;# 
   169  0087                     	;# 
   170  0088                     	;# 
   171  0089                     	;# 
   172  008C                     	;# 
   173  008D                     	;# 
   174  008E                     	;# 
   175  008F                     	;# 
   176  0090                     	;# 
   177  0091                     	;# 
   178  0092                     	;# 
   179  0093                     	;# 
   180  0093                     	;# 
   181  0093                     	;# 
   182  0094                     	;# 
   183  0095                     	;# 
   184  0096                     	;# 
   185  0097                     	;# 
   186  0098                     	;# 
   187  0099                     	;# 
   188  009A                     	;# 
   189  009B                     	;# 
   190  009C                     	;# 
   191  009D                     	;# 
   192  009E                     	;# 
   193  009F                     	;# 
   194  0105                     	;# 
   195  0107                     	;# 
   196  0108                     	;# 
   197  0109                     	;# 
   198  010C                     	;# 
   199  010C                     	;# 
   200  010D                     	;# 
   201  010E                     	;# 
   202  010F                     	;# 
   203  0185                     	;# 
   204  0187                     	;# 
   205  0188                     	;# 
   206  0189                     	;# 
   207  018C                     	;# 
   208  018D                     	;# 
   209  0006                     _PORTB	set	6
   210  0005                     _PORTA	set	5
   211  001F                     _ADCON0bits	set	31
   212  0008                     _PORTD	set	8
   213  0006                     _PORTBbits	set	6
   214  000B                     _INTCONbits	set	11
   215  0007                     _PORTC	set	7
   216  001E                     _ADRESH	set	30
   217  000C                     _PIR1bits	set	12
   218  008C                     _PIE1bits	set	140
   219  009F                     _ADCON1bits	set	159
   220  008F                     _OSCCONbits	set	143
   221  0096                     _IOCBbits	set	150
   222  0095                     _WPUBbits	set	149
   223  0081                     _OPTION_REGbits	set	129
   224  0086                     _TRISB	set	134
   225  0088                     _TRISD	set	136
   226  0087                     _TRISC	set	135
   227  0085                     _TRISA	set	133
   228  010C                     _EEDAT	set	268
   229  010D                     _EEADR	set	269
   230  018D                     _EECON2	set	397
   231  018C                     _EECON1bits	set	396
   232  0189                     _ANSELH	set	393
   233  0188                     _ANSEL	set	392
   234                           
   235                           	psect	cinit
   236  000F                     start_initialization:	
   237                           ; #config settings
   238                           
   239  000F                     __initialization:
   240                           
   241                           ; Clear objects allocated to COMMON
   242  000F  01F7               	clrf	__pbssCOMMON& (0+127)
   243  0010                     end_of_initialization:	
   244                           ;End of C runtime variable initialization code
   245                           
   246  0010                     __end_of__initialization:
   247  0010  0183               	clrf	3
   248  0011  120A  118A  2899   	ljmp	_main	;jump to C main() function
   249                           
   250                           	psect	bssCOMMON
   251  0077                     __pbssCOMMON:
   252  0077                     _pot:
   253  0077                     	ds	1
   254                           
   255                           	psect	cstackCOMMON
   256  0070                     __pcstackCOMMON:
   257  0070                     ?_write_EEPROM:
   258  0070                     ?_read_EEPROM:	
   259                           ; 1 bytes @ 0x0
   260                           
   261  0070                     ??_read_EEPROM:	
   262                           ; 1 bytes @ 0x0
   263                           
   264  0070                     ?_setup:	
   265                           ; 1 bytes @ 0x0
   266                           
   267  0070                     ?_isr:	
   268                           ; 1 bytes @ 0x0
   269                           
   270  0070                     ?_main:	
   271                           ; 1 bytes @ 0x0
   272                           
   273  0070                     read_EEPROM@address:	
   274                           ; 1 bytes @ 0x0
   275                           
   276  0070                     write_EEPROM@data:	
   277                           ; 1 bytes @ 0x0
   278                           
   279                           
   280                           ; 1 bytes @ 0x0
   281  0070                     	ds	1
   282  0071                     ??_write_EEPROM:
   283  0071                     write_EEPROM@address:	
   284                           ; 1 bytes @ 0x1
   285                           
   286                           
   287                           ; 1 bytes @ 0x1
   288  0071                     	ds	1
   289  0072                     ??_isr:
   290                           
   291                           ; 1 bytes @ 0x2
   292  0072                     	ds	4
   293  0076                     ??_setup:
   294                           
   295                           ; 1 bytes @ 0x6
   296  0076                     	ds	1
   297                           
   298                           	psect	cstackBANK0
   299  0020                     __pcstackBANK0:
   300  0020                     ??_main:
   301                           
   302                           ; 1 bytes @ 0x0
   303  0020                     	ds	1
   304                           
   305                           	psect	maintext
   306  0099                     __pmaintext:	
   307 ;;
   308 ;;Main: autosize = 0, tempsize = 1, incstack = 0, save=0
   309 ;;
   310 ;; *************** function _main *****************
   311 ;; Defined at:
   312 ;;		line 90 in file "../Lab12.X/lab.c"
   313 ;; Parameters:    Size  Location     Type
   314 ;;		None
   315 ;; Auto vars:     Size  Location     Type
   316 ;;		None
   317 ;; Return value:  Size  Location     Type
   318 ;;                  1    wreg      void 
   319 ;; Registers used:
   320 ;;		wreg, status,2, status,0, pclath, cstack
   321 ;; Tracked objects:
   322 ;;		On entry : B00/0
   323 ;;		On exit  : 0/0
   324 ;;		Unchanged: 0/0
   325 ;; Data sizes:     COMMON   BANK0   BANK1   BANK3   BANK2
   326 ;;      Params:         0       0       0       0       0
   327 ;;      Locals:         0       0       0       0       0
   328 ;;      Temps:          0       1       0       0       0
   329 ;;      Totals:         0       1       0       0       0
   330 ;;Total ram usage:        1 bytes
   331 ;; Hardware stack levels required when called: 3
   332 ;; This function calls:
   333 ;;		_setup
   334 ;; This function is called by:
   335 ;;		Startup code after reset
   336 ;; This function uses a non-reentrant model
   337 ;;
   338                           
   339  0099                     _main:	
   340                           ;psect for function _main
   341                           
   342  0099                     l838:	
   343                           ;incstack = 0
   344                           ; Regs used in _main: [wreg+status,2+status,0+pclath+cstack]
   345                           
   346                           
   347                           ;../Lab12.X/lab.c: 91:     setup();
   348  0099  120A  118A  2014  120A  118A  	fcall	_setup
   349  009E                     l840:
   350                           
   351                           ;../Lab12.X/lab.c: 92:     ADCON0bits.GO = 1;
   352  009E  1283               	bcf	3,5	;RP0=0, select bank0
   353  009F  1303               	bcf	3,6	;RP1=0, select bank0
   354  00A0  149F               	bsf	31,1	;volatile
   355  00A1                     l842:
   356                           
   357                           ;../Lab12.X/lab.c: 96:     if (ADCON0bits.GO == 0) {
   358  00A1  1283               	bcf	3,5	;RP0=0, select bank0
   359  00A2  1303               	bcf	3,6	;RP1=0, select bank0
   360  00A3  189F               	btfsc	31,1	;volatile
   361  00A4  28A6               	goto	u111
   362  00A5  28A7               	goto	u110
   363  00A6                     u111:
   364  00A6  28B1               	goto	l848
   365  00A7                     u110:
   366  00A7                     l844:
   367                           
   368                           ;../Lab12.X/lab.c: 97:         _delay((unsigned long)((50)*(4000000/4000000.0)));
   369  00A7  300F               	movlw	15
   370  00A8  1283               	bcf	3,5	;RP0=0, select bank0
   371  00A9  1303               	bcf	3,6	;RP1=0, select bank0
   372  00AA  00A0               	movwf	??_main
   373  00AB                     u137:
   374  00AB  0BA0               	decfsz	??_main,f
   375  00AC  28AB               	goto	u137
   376  00AD  28AE               	nop2
   377  00AE                     l846:
   378                           
   379                           ;../Lab12.X/lab.c: 98:         ADCON0bits.GO = 1;
   380  00AE  1283               	bcf	3,5	;RP0=0, select bank0
   381  00AF  1303               	bcf	3,6	;RP1=0, select bank0
   382  00B0  149F               	bsf	31,1	;volatile
   383  00B1                     l848:
   384                           
   385                           ;../Lab12.X/lab.c: 100:     if (!PORTBbits.RB1)
   386  00B1  1886               	btfsc	6,1	;volatile
   387  00B2  28B4               	goto	u121
   388  00B3  28B5               	goto	u120
   389  00B4                     u121:
   390  00B4  28A1               	goto	l842
   391  00B5                     u120:
   392  00B5                     l850:
   393  00B5  0063               	sleep	;# 
   394  00B6  28A1               	goto	l842
   395  00B7  120A  118A  280C   	ljmp	start
   396  00BA                     __end_of_main:
   397                           
   398                           	psect	text1
   399  0014                     __ptext1:	
   400 ;; *************** function _setup *****************
   401 ;; Defined at:
   402 ;;		line 111 in file "../Lab12.X/lab.c"
   403 ;; Parameters:    Size  Location     Type
   404 ;;		None
   405 ;; Auto vars:     Size  Location     Type
   406 ;;		None
   407 ;; Return value:  Size  Location     Type
   408 ;;                  1    wreg      void 
   409 ;; Registers used:
   410 ;;		wreg, status,2, status,0
   411 ;; Tracked objects:
   412 ;;		On entry : 0/0
   413 ;;		On exit  : 0/0
   414 ;;		Unchanged: 0/0
   415 ;; Data sizes:     COMMON   BANK0   BANK1   BANK3   BANK2
   416 ;;      Params:         0       0       0       0       0
   417 ;;      Locals:         0       0       0       0       0
   418 ;;      Temps:          1       0       0       0       0
   419 ;;      Totals:         1       0       0       0       0
   420 ;;Total ram usage:        1 bytes
   421 ;; Hardware stack levels used: 1
   422 ;; Hardware stack levels required when called: 2
   423 ;; This function calls:
   424 ;;		Nothing
   425 ;; This function is called by:
   426 ;;		_main
   427 ;; This function uses a non-reentrant model
   428 ;;
   429                           
   430  0014                     _setup:	
   431                           ;psect for function _setup
   432                           
   433  0014                     l708:	
   434                           ;incstack = 0
   435                           ; Regs used in _setup: [wreg+status,2+status,0]
   436                           
   437                           
   438                           ;../Lab12.X/lab.c: 114:     ANSEL = 0b00000001;
   439  0014  3001               	movlw	1
   440  0015  1683               	bsf	3,5	;RP0=1, select bank3
   441  0016  1703               	bsf	3,6	;RP1=1, select bank3
   442  0017  0088               	movwf	8	;volatile
   443  0018                     l710:
   444                           
   445                           ;../Lab12.X/lab.c: 115:     ANSELH = 0;
   446  0018  0189               	clrf	9	;volatile
   447  0019                     l712:
   448                           
   449                           ;../Lab12.X/lab.c: 117:     TRISA = 0b00000001;
   450  0019  3001               	movlw	1
   451  001A  1683               	bsf	3,5	;RP0=1, select bank1
   452  001B  1303               	bcf	3,6	;RP1=0, select bank1
   453  001C  0085               	movwf	5	;volatile
   454                           
   455                           ;../Lab12.X/lab.c: 118:     PORTA = 0;
   456  001D  1283               	bcf	3,5	;RP0=0, select bank0
   457  001E  1303               	bcf	3,6	;RP1=0, select bank0
   458  001F  0185               	clrf	5	;volatile
   459                           
   460                           ;../Lab12.X/lab.c: 120:     TRISC = 0;
   461  0020  1683               	bsf	3,5	;RP0=1, select bank1
   462  0021  1303               	bcf	3,6	;RP1=0, select bank1
   463  0022  0187               	clrf	7	;volatile
   464                           
   465                           ;../Lab12.X/lab.c: 121:     PORTC = 0;
   466  0023  1283               	bcf	3,5	;RP0=0, select bank0
   467  0024  1303               	bcf	3,6	;RP1=0, select bank0
   468  0025  0187               	clrf	7	;volatile
   469                           
   470                           ;../Lab12.X/lab.c: 123:     TRISD = 0;
   471  0026  1683               	bsf	3,5	;RP0=1, select bank1
   472  0027  1303               	bcf	3,6	;RP1=0, select bank1
   473  0028  0188               	clrf	8	;volatile
   474                           
   475                           ;../Lab12.X/lab.c: 124:     PORTD = 0;
   476  0029  1283               	bcf	3,5	;RP0=0, select bank0
   477  002A  1303               	bcf	3,6	;RP1=0, select bank0
   478  002B  0188               	clrf	8	;volatile
   479  002C                     l714:
   480                           
   481                           ;../Lab12.X/lab.c: 127:     TRISB = 0b00000111;
   482  002C  3007               	movlw	7
   483  002D  1683               	bsf	3,5	;RP0=1, select bank1
   484  002E  1303               	bcf	3,6	;RP1=0, select bank1
   485  002F  0086               	movwf	6	;volatile
   486  0030                     l716:
   487                           
   488                           ;../Lab12.X/lab.c: 128:     PORTB = 0;
   489  0030  1283               	bcf	3,5	;RP0=0, select bank0
   490  0031  1303               	bcf	3,6	;RP1=0, select bank0
   491  0032  0186               	clrf	6	;volatile
   492  0033                     l718:
   493                           
   494                           ;../Lab12.X/lab.c: 130:     OPTION_REGbits.nRBPU = 0;
   495  0033  1683               	bsf	3,5	;RP0=1, select bank1
   496  0034  1303               	bcf	3,6	;RP1=0, select bank1
   497  0035  1381               	bcf	1,7	;volatile
   498  0036                     l720:
   499                           
   500                           ;../Lab12.X/lab.c: 131:     WPUBbits.WPUB0 = 1;
   501  0036  1415               	bsf	21,0	;volatile
   502  0037                     l722:
   503                           
   504                           ;../Lab12.X/lab.c: 132:     WPUBbits.WPUB1 = 1;
   505  0037  1495               	bsf	21,1	;volatile
   506  0038                     l724:
   507                           
   508                           ;../Lab12.X/lab.c: 133:     WPUBbits.WPUB2 = 1;
   509  0038  1515               	bsf	21,2	;volatile
   510  0039                     l726:
   511                           
   512                           ;../Lab12.X/lab.c: 135:     INTCONbits.RBIE = 1;
   513  0039  158B               	bsf	11,3	;volatile
   514  003A                     l728:
   515                           
   516                           ;../Lab12.X/lab.c: 136:     IOCBbits.IOCB0 = 1;
   517  003A  1416               	bsf	22,0	;volatile
   518  003B                     l730:
   519                           
   520                           ;../Lab12.X/lab.c: 137:     IOCBbits.IOCB2 = 1;
   521  003B  1516               	bsf	22,2	;volatile
   522  003C                     l732:
   523                           
   524                           ;../Lab12.X/lab.c: 139:     INTCONbits.RBIF = 0;
   525  003C  100B               	bcf	11,0	;volatile
   526  003D                     l734:
   527                           
   528                           ;../Lab12.X/lab.c: 142:     OSCCONbits.IRCF = 0b0110;
   529  003D  080F               	movf	15,w	;volatile
   530  003E  398F               	andlw	-113
   531  003F  3860               	iorlw	96
   532  0040  008F               	movwf	15	;volatile
   533  0041                     l736:
   534                           
   535                           ;../Lab12.X/lab.c: 143:     OSCCONbits.SCS = 1;
   536  0041  140F               	bsf	15,0	;volatile
   537  0042                     l738:
   538                           
   539                           ;../Lab12.X/lab.c: 147:     ADCON1bits.ADFM = 0;
   540  0042  139F               	bcf	31,7	;volatile
   541  0043                     l740:
   542                           
   543                           ;../Lab12.X/lab.c: 148:     ADCON1bits.VCFG0 = 0;
   544  0043  121F               	bcf	31,4	;volatile
   545  0044                     l742:
   546                           
   547                           ;../Lab12.X/lab.c: 149:     ADCON1bits.VCFG1 = 0;
   548  0044  129F               	bcf	31,5	;volatile
   549  0045                     l744:
   550                           
   551                           ;../Lab12.X/lab.c: 151:     ADCON0bits.ADCS = 0b01;
   552  0045  1283               	bcf	3,5	;RP0=0, select bank0
   553  0046  1303               	bcf	3,6	;RP1=0, select bank0
   554  0047  081F               	movf	31,w	;volatile
   555  0048  393F               	andlw	-193
   556  0049  3840               	iorlw	64
   557  004A  009F               	movwf	31	;volatile
   558  004B                     l746:
   559                           
   560                           ;../Lab12.X/lab.c: 152:     ADCON0bits.CHS = 0b0000;
   561  004B  30C3               	movlw	-61
   562  004C  059F               	andwf	31,f	;volatile
   563  004D                     l748:
   564                           
   565                           ;../Lab12.X/lab.c: 154:     ADCON0bits.ADON = 1;
   566  004D  141F               	bsf	31,0	;volatile
   567  004E                     l750:
   568                           
   569                           ;../Lab12.X/lab.c: 155:     _delay((unsigned long)((50)*(4000000/4000000.0)));
   570  004E  3010               	movlw	16
   571  004F  00F6               	movwf	??_setup
   572  0050                     u147:
   573  0050  0BF6               	decfsz	??_setup,f
   574  0051  2850               	goto	u147
   575  0052  0000               	nop
   576  0053                     l752:
   577                           
   578                           ;../Lab12.X/lab.c: 158:     INTCONbits.GIE = 1;
   579  0053  178B               	bsf	11,7	;volatile
   580  0054                     l754:
   581                           
   582                           ;../Lab12.X/lab.c: 159:     INTCONbits.PEIE = 1;
   583  0054  170B               	bsf	11,6	;volatile
   584  0055                     l756:
   585                           
   586                           ;../Lab12.X/lab.c: 161:     PIE1bits.ADIE = 1;
   587  0055  1683               	bsf	3,5	;RP0=1, select bank1
   588  0056  1303               	bcf	3,6	;RP1=0, select bank1
   589  0057  170C               	bsf	12,6	;volatile
   590  0058                     l758:
   591                           
   592                           ;../Lab12.X/lab.c: 162:     PIR1bits.ADIF = 0;
   593  0058  1283               	bcf	3,5	;RP0=0, select bank0
   594  0059  1303               	bcf	3,6	;RP1=0, select bank0
   595  005A  130C               	bcf	12,6	;volatile
   596  005B                     l82:
   597  005B  0008               	return
   598  005C                     __end_of_setup:
   599                           
   600                           	psect	text2
   601  005C                     __ptext2:	
   602 ;; *************** function _isr *****************
   603 ;; Defined at:
   604 ;;		line 59 in file "../Lab12.X/lab.c"
   605 ;; Parameters:    Size  Location     Type
   606 ;;		None
   607 ;; Auto vars:     Size  Location     Type
   608 ;;		None
   609 ;; Return value:  Size  Location     Type
   610 ;;                  1    wreg      void 
   611 ;; Registers used:
   612 ;;		wreg, status,2, status,0, pclath, cstack
   613 ;; Tracked objects:
   614 ;;		On entry : 0/0
   615 ;;		On exit  : 0/0
   616 ;;		Unchanged: 0/0
   617 ;; Data sizes:     COMMON   BANK0   BANK1   BANK3   BANK2
   618 ;;      Params:         0       0       0       0       0
   619 ;;      Locals:         0       0       0       0       0
   620 ;;      Temps:          4       0       0       0       0
   621 ;;      Totals:         4       0       0       0       0
   622 ;;Total ram usage:        4 bytes
   623 ;; Hardware stack levels used: 1
   624 ;; Hardware stack levels required when called: 1
   625 ;; This function calls:
   626 ;;		_read_EEPROM
   627 ;;		_write_EEPROM
   628 ;; This function is called by:
   629 ;;		Interrupt level 1
   630 ;; This function uses a non-reentrant model
   631 ;;
   632                           
   633  005C                     _isr:	
   634                           ;psect for function _isr
   635                           
   636  005C                     i1l816:
   637                           
   638                           ;../Lab12.X/lab.c: 61:     if (PIR1bits.ADIF)
   639  005C  1283               	bcf	3,5	;RP0=0, select bank0
   640  005D  1303               	bcf	3,6	;RP1=0, select bank0
   641  005E  1F0C               	btfss	12,6	;volatile
   642  005F  2861               	goto	u7_21
   643  0060  2862               	goto	u7_20
   644  0061                     u7_21:
   645  0061  2869               	goto	i1l822
   646  0062                     u7_20:
   647  0062                     i1l818:
   648                           
   649                           ;../Lab12.X/lab.c: 62:     {;../Lab12.X/lab.c: 63:         pot = ADRESH;
   650  0062  081E               	movf	30,w	;volatile
   651  0063  00F2               	movwf	??_isr
   652  0064  0872               	movf	??_isr,w
   653  0065  00F7               	movwf	_pot
   654                           
   655                           ;../Lab12.X/lab.c: 64:         PORTC = pot;
   656  0066  0877               	movf	_pot,w
   657  0067  0087               	movwf	7	;volatile
   658  0068                     i1l820:
   659                           
   660                           ;../Lab12.X/lab.c: 65:         PIR1bits.ADIF = 0;
   661  0068  130C               	bcf	12,6	;volatile
   662  0069                     i1l822:
   663                           
   664                           ;../Lab12.X/lab.c: 69:     if (INTCONbits.RBIF)
   665  0069  1C0B               	btfss	11,0	;volatile
   666  006A  286C               	goto	u8_21
   667  006B  286D               	goto	u8_20
   668  006C                     u8_21:
   669  006C  2892               	goto	i1l69
   670  006D                     u8_20:
   671  006D                     i1l824:
   672                           
   673                           ;../Lab12.X/lab.c: 70:     {;../Lab12.X/lab.c: 71:         if (!PORTBbits.RB0)
   674  006D  1806               	btfsc	6,0	;volatile
   675  006E  2870               	goto	u9_21
   676  006F  2871               	goto	u9_20
   677  0070                     u9_21:
   678  0070  2884               	goto	i1l830
   679  0071                     u9_20:
   680  0071                     i1l826:
   681                           
   682                           ;../Lab12.X/lab.c: 72:         {;../Lab12.X/lab.c: 73:             write_EEPROM(0x00, po
      +                          t);
   683  0071  0877               	movf	_pot,w
   684  0072  00F2               	movwf	??_isr
   685  0073  0872               	movf	??_isr,w
   686  0074  00F0               	movwf	write_EEPROM@data
   687  0075  3000               	movlw	0
   688  0076  120A  118A  20BA  120A  118A  	fcall	_write_EEPROM
   689  007B                     i1l828:
   690                           
   691                           ;../Lab12.X/lab.c: 74:             PORTD = read_EEPROM(0x00);
   692  007B  3000               	movlw	0
   693  007C  120A  118A  20D1  120A  118A  	fcall	_read_EEPROM
   694  0081  1283               	bcf	3,5	;RP0=0, select bank0
   695  0082  1303               	bcf	3,6	;RP1=0, select bank0
   696  0083  0088               	movwf	8	;volatile
   697  0084                     i1l830:
   698                           
   699                           ;../Lab12.X/lab.c: 79:         if (!PORTBbits.RB2){
   700  0084  1906               	btfsc	6,2	;volatile
   701  0085  2887               	goto	u10_21
   702  0086  2888               	goto	u10_20
   703  0087                     u10_21:
   704  0087  2891               	goto	i1l834
   705  0088                     u10_20:
   706  0088                     i1l832:
   707                           
   708                           ;../Lab12.X/lab.c: 80:             _delay((unsigned long)((100)*(4000000/4000.0)));
   709  0088  3082               	movlw	130
   710  0089  00F3               	movwf	??_isr+1
   711  008A  30DD               	movlw	221
   712  008B  00F2               	movwf	??_isr
   713  008C                     u15_27:
   714  008C  0BF2               	decfsz	??_isr,f
   715  008D  288C               	goto	u15_27
   716  008E  0BF3               	decfsz	??_isr+1,f
   717  008F  288C               	goto	u15_27
   718  0090  2891               	nop2
   719  0091                     i1l834:
   720                           
   721                           ;../Lab12.X/lab.c: 83:         INTCONbits.RBIF = 0;
   722  0091  100B               	bcf	11,0	;volatile
   723  0092                     i1l69:
   724  0092  0875               	movf	??_isr+3,w
   725  0093  008A               	movwf	10
   726  0094  0E74               	swapf	??_isr+2,w
   727  0095  0083               	movwf	3
   728  0096  0EFE               	swapf	btemp,f
   729  0097  0E7E               	swapf	btemp,w
   730  0098  0009               	retfie
   731  0099                     __end_of_isr:
   732                           
   733                           	psect	intentry
   734  0004                     __pintentry:	
   735                           ;incstack = 0
   736                           ; Regs used in _isr: [wreg+status,2+status,0+pclath+cstack]
   737                           
   738  0004                     interrupt_function:
   739  007E                     saved_w	set	btemp
   740  0004  00FE               	movwf	btemp
   741  0005  0E03               	swapf	3,w
   742  0006  00F4               	movwf	??_isr+2
   743  0007  080A               	movf	10,w
   744  0008  00F5               	movwf	??_isr+3
   745  0009  120A  118A  285C   	ljmp	_isr
   746                           
   747                           	psect	text3
   748  00BA                     __ptext3:	
   749 ;; *************** function _write_EEPROM *****************
   750 ;; Defined at:
   751 ;;		line 177 in file "../Lab12.X/lab.c"
   752 ;; Parameters:    Size  Location     Type
   753 ;;  address         1    wreg     unsigned char 
   754 ;;  data            1    0[COMMON] unsigned char 
   755 ;; Auto vars:     Size  Location     Type
   756 ;;  address         1    1[COMMON] unsigned char 
   757 ;; Return value:  Size  Location     Type
   758 ;;                  1    wreg      void 
   759 ;; Registers used:
   760 ;;		wreg
   761 ;; Tracked objects:
   762 ;;		On entry : 0/0
   763 ;;		On exit  : 0/0
   764 ;;		Unchanged: 0/0
   765 ;; Data sizes:     COMMON   BANK0   BANK1   BANK3   BANK2
   766 ;;      Params:         1       0       0       0       0
   767 ;;      Locals:         1       0       0       0       0
   768 ;;      Temps:          0       0       0       0       0
   769 ;;      Totals:         2       0       0       0       0
   770 ;;Total ram usage:        2 bytes
   771 ;; Hardware stack levels used: 1
   772 ;; This function calls:
   773 ;;		Nothing
   774 ;; This function is called by:
   775 ;;		_isr
   776 ;; This function uses a non-reentrant model
   777 ;;
   778                           
   779  00BA                     _write_EEPROM:	
   780                           ;psect for function _write_EEPROM
   781                           
   782                           
   783                           ;incstack = 0
   784                           ; Regs used in _write_EEPROM: [wreg]
   785                           ;write_EEPROM@address stored from wreg
   786  00BA  00F1               	movwf	write_EEPROM@address
   787  00BB                     i1l796:
   788                           
   789                           ;../Lab12.X/lab.c: 178:     EEADR = address;
   790  00BB  0871               	movf	write_EEPROM@address,w
   791  00BC  1283               	bcf	3,5	;RP0=0, select bank2
   792  00BD  1703               	bsf	3,6	;RP1=1, select bank2
   793  00BE  008D               	movwf	13	;volatile
   794                           
   795                           ;../Lab12.X/lab.c: 179:     EEDAT = data;
   796  00BF  0870               	movf	write_EEPROM@data,w
   797  00C0  008C               	movwf	12	;volatile
   798  00C1                     i1l798:
   799                           
   800                           ;../Lab12.X/lab.c: 180:     EECON1bits.EEPGD = 0;
   801  00C1  1683               	bsf	3,5	;RP0=1, select bank3
   802  00C2  1703               	bsf	3,6	;RP1=1, select bank3
   803  00C3  138C               	bcf	12,7	;volsfr
   804  00C4                     i1l800:
   805                           
   806                           ;../Lab12.X/lab.c: 181:     EECON1bits.WREN = 1;
   807  00C4  150C               	bsf	12,2	;volsfr
   808  00C5                     i1l802:
   809                           
   810                           ;../Lab12.X/lab.c: 183:     INTCONbits.GIE = 0;
   811  00C5  138B               	bcf	11,7	;volatile
   812  00C6                     i1l804:
   813                           
   814                           ;../Lab12.X/lab.c: 184:     INTCONbits.PEIE = 0;
   815  00C6  130B               	bcf	11,6	;volatile
   816                           
   817                           ;../Lab12.X/lab.c: 185:     EECON2 = 0x55;
   818  00C7  3055               	movlw	85
   819  00C8  008D               	movwf	13	;volsfr
   820                           
   821                           ;../Lab12.X/lab.c: 186:     EECON2 = 0xAA;
   822  00C9  30AA               	movlw	170
   823  00CA  008D               	movwf	13	;volsfr
   824  00CB                     i1l806:
   825                           
   826                           ;../Lab12.X/lab.c: 188:     EECON1bits.WR = 1;
   827  00CB  148C               	bsf	12,1	;volsfr
   828  00CC                     i1l808:
   829                           
   830                           ;../Lab12.X/lab.c: 190:     EECON1bits.WREN = 0;
   831  00CC  110C               	bcf	12,2	;volsfr
   832  00CD                     i1l810:
   833                           
   834                           ;../Lab12.X/lab.c: 191:     INTCONbits.RBIF = 0;
   835  00CD  100B               	bcf	11,0	;volatile
   836  00CE                     i1l812:
   837                           
   838                           ;../Lab12.X/lab.c: 192:     INTCONbits.GIE = 1;
   839  00CE  178B               	bsf	11,7	;volatile
   840  00CF                     i1l814:
   841                           
   842                           ;../Lab12.X/lab.c: 193:     INTCONbits.PEIE = 1;
   843  00CF  170B               	bsf	11,6	;volatile
   844  00D0                     i1l88:
   845  00D0  0008               	return
   846  00D1                     __end_of_write_EEPROM:
   847                           
   848                           	psect	text4
   849  00D1                     __ptext4:	
   850 ;; *************** function _read_EEPROM *****************
   851 ;; Defined at:
   852 ;;		line 170 in file "../Lab12.X/lab.c"
   853 ;; Parameters:    Size  Location     Type
   854 ;;  address         1    wreg     unsigned char 
   855 ;; Auto vars:     Size  Location     Type
   856 ;;  address         1    0[COMMON] unsigned char 
   857 ;; Return value:  Size  Location     Type
   858 ;;                  1    wreg      unsigned char 
   859 ;; Registers used:
   860 ;;		wreg
   861 ;; Tracked objects:
   862 ;;		On entry : 0/0
   863 ;;		On exit  : 0/0
   864 ;;		Unchanged: 0/0
   865 ;; Data sizes:     COMMON   BANK0   BANK1   BANK3   BANK2
   866 ;;      Params:         0       0       0       0       0
   867 ;;      Locals:         1       0       0       0       0
   868 ;;      Temps:          0       0       0       0       0
   869 ;;      Totals:         1       0       0       0       0
   870 ;;Total ram usage:        1 bytes
   871 ;; Hardware stack levels used: 1
   872 ;; This function calls:
   873 ;;		Nothing
   874 ;; This function is called by:
   875 ;;		_isr
   876 ;; This function uses a non-reentrant model
   877 ;;
   878                           
   879  00D1                     _read_EEPROM:	
   880                           ;psect for function _read_EEPROM
   881                           
   882                           
   883                           ;incstack = 0
   884                           ; Regs used in _read_EEPROM: [wreg]
   885                           ;read_EEPROM@address stored from wreg
   886  00D1  00F0               	movwf	read_EEPROM@address
   887  00D2                     i1l700:
   888                           
   889                           ;../Lab12.X/lab.c: 171:     EEADR = address;
   890  00D2  0870               	movf	read_EEPROM@address,w
   891  00D3  1283               	bcf	3,5	;RP0=0, select bank2
   892  00D4  1703               	bsf	3,6	;RP1=1, select bank2
   893  00D5  008D               	movwf	13	;volatile
   894  00D6                     i1l702:
   895                           
   896                           ;../Lab12.X/lab.c: 172:     EECON1bits.EEPGD = 0;
   897  00D6  1683               	bsf	3,5	;RP0=1, select bank3
   898  00D7  1703               	bsf	3,6	;RP1=1, select bank3
   899  00D8  138C               	bcf	12,7	;volsfr
   900  00D9                     i1l704:
   901                           
   902                           ;../Lab12.X/lab.c: 173:     EECON1bits.RD = 1;
   903  00D9  140C               	bsf	12,0	;volsfr
   904                           
   905                           ;../Lab12.X/lab.c: 174:     return EEDAT;
   906  00DA  1283               	bcf	3,5	;RP0=0, select bank2
   907  00DB  1703               	bsf	3,6	;RP1=1, select bank2
   908  00DC  080C               	movf	12,w	;volatile
   909  00DD                     i1l85:
   910  00DD  0008               	return
   911  00DE                     __end_of_read_EEPROM:
   912  007E                     btemp	set	126	;btemp
   913  007E                     wtemp0	set	126
   914                           
   915                           	psect	idloc
   916                           
   917                           ;Config register IDLOC0 @ 0x2000
   918                           ;	unspecified, using default values
   919  2000                     	org	8192
   920  2000  3FFF               	dw	16383
   921                           
   922                           ;Config register IDLOC1 @ 0x2001
   923                           ;	unspecified, using default values
   924  2001                     	org	8193
   925  2001  3FFF               	dw	16383
   926                           
   927                           ;Config register IDLOC2 @ 0x2002
   928                           ;	unspecified, using default values
   929  2002                     	org	8194
   930  2002  3FFF               	dw	16383
   931                           
   932                           ;Config register IDLOC3 @ 0x2003
   933                           ;	unspecified, using default values
   934  2003                     	org	8195
   935  2003  3FFF               	dw	16383
   936                           
   937                           	psect	config
   938                           
   939                           ;Config register CONFIG1 @ 0x2007
   940                           ;	Oscillator Selection bits
   941                           ;	FOSC = INTRC_NOCLKOUT, INTOSCIO oscillator: I/O function on RA6/OSC2/CLKOUT pin, I/O f
      +                          unction on RA7/OSC1/CLKIN
   942                           ;	Watchdog Timer Enable bit
   943                           ;	WDTE = OFF, WDT disabled and can be enabled by SWDTEN bit of the WDTCON register
   944                           ;	Power-up Timer Enable bit
   945                           ;	PWRTE = OFF, PWRT disabled
   946                           ;	RE3/MCLR pin function select bit
   947                           ;	MCLRE = OFF, RE3/MCLR pin function is digital input, MCLR internally tied to VDD
   948                           ;	Code Protection bit
   949                           ;	CP = OFF, Program memory code protection is disabled
   950                           ;	Data Code Protection bit
   951                           ;	CPD = OFF, Data memory code protection is disabled
   952                           ;	Brown Out Reset Selection bits
   953                           ;	BOREN = OFF, BOR disabled
   954                           ;	Internal External Switchover bit
   955                           ;	IESO = OFF, Internal/External Switchover mode is disabled
   956                           ;	Fail-Safe Clock Monitor Enabled bit
   957                           ;	FCMEN = OFF, Fail-Safe Clock Monitor is disabled
   958                           ;	Low Voltage Programming Enable bit
   959                           ;	LVP = OFF, RB3 pin has digital I/O, HV on MCLR must be used for programming
   960                           ;	In-Circuit Debugger Mode bit
   961                           ;	DEBUG = 0x1, unprogrammed default
   962  2007                     	org	8199
   963  2007  20D4               	dw	8404
   964                           
   965                           ;Config register CONFIG2 @ 0x2008
   966                           ;	Brown-out Reset Selection bit
   967                           ;	BOR4V = BOR40V, Brown-out Reset set to 4.0V
   968                           ;	Flash Program Memory Self Write Enable bits
   969                           ;	WRT = OFF, Write protection off
   970  2008                     	org	8200
   971  2008  3FFF               	dw	16383

Data Sizes:
    Strings     0
    Constant    0
    Data        0
    BSS         1
    Persistent  0
    Stack       0

Auto Spaces:
    Space          Size  Autos    Used
    COMMON           14      7       8
    BANK0            80      1       1
    BANK1            80      0       0
    BANK3            96      0       0
    BANK2            96      0       0

Pointer List with Targets:

    None.

Critical Paths under _main in COMMON

    _main->_setup

Critical Paths under _isr in COMMON

    _isr->_write_EEPROM

Critical Paths under _main in BANK0

    None.

Critical Paths under _isr in BANK0

    None.

Critical Paths under _main in BANK1

    None.

Critical Paths under _isr in BANK1

    None.

Critical Paths under _main in BANK3

    None.

Critical Paths under _isr in BANK3

    None.

Critical Paths under _main in BANK2

    None.

Critical Paths under _isr in BANK2

    None.

Call Graph Tables:

 ---------------------------------------------------------------------------------
 (Depth) Function   	        Calls       Base Space   Used Autos Params    Refs
 ---------------------------------------------------------------------------------
 (0) _main                                                 1     1      0       0
                                              0 BANK0      1     1      0
                              _setup
 ---------------------------------------------------------------------------------
 (1) _setup                                                1     1      0       0
                                              6 COMMON     1     1      0
 ---------------------------------------------------------------------------------
 Estimated maximum stack depth 1
 ---------------------------------------------------------------------------------
 (Depth) Function   	        Calls       Base Space   Used Autos Params    Refs
 ---------------------------------------------------------------------------------
 (2) _isr                                                  4     4      0     135
                                              2 COMMON     4     4      0
                        _read_EEPROM
                       _write_EEPROM
 ---------------------------------------------------------------------------------
 (3) _write_EEPROM                                         2     1      1     120
                                              0 COMMON     2     1      1
 ---------------------------------------------------------------------------------
 (3) _read_EEPROM                                          1     1      0      15
                                              0 COMMON     1     1      0
 ---------------------------------------------------------------------------------
 Estimated maximum stack depth 3
 ---------------------------------------------------------------------------------

 Call Graph Graphs:

 _main (ROOT)
   _setup

 _isr (ROOT)
   _read_EEPROM
   _write_EEPROM

 Address spaces:
Name               Size   Autos  Total    Cost      Usage
BITCOMMON            E      0       0       0        0.0%
EEDATA             100      0       0       0        0.0%
NULL                 0      0       0       0        0.0%
CODE                 0      0       0       0        0.0%
COMMON               E      7       8       1       57.1%
BITSFR0              0      0       0       1        0.0%
SFR0                 0      0       0       1        0.0%
BITSFR1              0      0       0       2        0.0%
SFR1                 0      0       0       2        0.0%
STACK                0      0       0       2        0.0%
ABS                  0      0       9       3        0.0%
BITBANK0            50      0       0       4        0.0%
BITSFR3              0      0       0       4        0.0%
SFR3                 0      0       0       4        0.0%
BANK0               50      1       1       5        1.2%
BITSFR2              0      0       0       5        0.0%
SFR2                 0      0       0       5        0.0%
BITBANK1            50      0       0       6        0.0%
BANK1               50      0       0       7        0.0%
BITBANK3            60      0       0       8        0.0%
BANK3               60      0       0       9        0.0%
BITBANK2            60      0       0      10        0.0%
BANK2               60      0       0      11        0.0%
DATA                 0      0       9      12        0.0%


Microchip Technology PIC Macro Assembler V2.35 build 20211206165544 
Symbol Table                                                                                   Mon May 16 19:23:44 2022

                     l82 005B                      l710 0018                      l720 0036  
                    l712 0019                      l730 003B                      l722 0037  
                    l714 002C                      l740 0043                      l732 003C  
                    l724 0038                      l716 0030                      l708 0014  
                    l750 004E                      l742 0044                      l734 003D  
                    l726 0039                      l718 0033                      l752 0053  
                    l744 0045                      l736 0041                      l728 003A  
                    l840 009E                      l754 0054                      l746 004B  
                    l738 0042                      l850 00B5                      l842 00A1  
                    l756 0055                      l748 004D                      l844 00A7  
                    l758 0058                      l846 00AE                      l838 0099  
                    l848 00B1                      u110 00A7                      u111 00A6  
                    u120 00B5                      u121 00B4                      u137 00AB  
                    u147 0050                      _isr 005C                      _pot 0077  
                   ?_isr 0070                     i1l85 00DD                     i1l69 0092  
                   i1l88 00D0                     u7_20 0062                     u7_21 0061  
                   u8_20 006D                     u8_21 006C                     u9_20 0071  
                   u9_21 0070                     _main 0099                     btemp 007E  
                   start 000C             ?_read_EEPROM 0070                    ??_isr 0072  
                  ?_main 0070                    _EEADR 010D                    _EEDAT 010C  
                  _ANSEL 0188                    i1l700 00D2                    i1l702 00D6  
                  i1l704 00D9                    i1l800 00C4                    i1l810 00CD  
                  i1l802 00C5                    i1l812 00CE                    i1l804 00C6  
                  i1l820 0068                    i1l814 00CF                    i1l806 00CB  
                  i1l830 0084                    i1l822 0069                    i1l808 00CC  
                  i1l832 0088                    i1l824 006D                    i1l816 005C  
                  i1l834 0091                    i1l826 0071                    i1l818 0062  
                  i1l828 007B                    i1l796 00BB                    i1l798 00C1  
                  u10_20 0088                    u10_21 0087                    u15_27 008C  
                  _PORTA 0005                    _PORTB 0006                    _PORTC 0007  
                  _PORTD 0008                    _TRISA 0085                    _TRISB 0086  
                  _TRISC 0087                    _TRISD 0088                    _setup 0014  
                  pclath 000A                    status 0003                    wtemp0 007E  
        __initialization 000F             __end_of_main 00BA                   ??_main 0020  
           _write_EEPROM 00BA                   _ADRESH 001E                   _EECON2 018D  
                 ?_setup 0070                   _ANSELH 0189                   saved_w 007E  
__end_of__initialization 0010           __pcstackCOMMON 0070            __end_of_setup 005C  
     read_EEPROM@address 0070           _OPTION_REGbits 0081         write_EEPROM@data 0070  
                ??_setup 0076               __pmaintext 0099               __pintentry 0004  
                __ptext1 0014                  __ptext2 005C                  __ptext3 00BA  
                __ptext4 00D1     end_of_initialization 0010      write_EEPROM@address 0071  
              _PORTBbits 0006      start_initialization 000F              __end_of_isr 0099  
          ??_read_EEPROM 0070              __pbssCOMMON 0077                ___latbits 0002  
          __pcstackBANK0 0020      __end_of_read_EEPROM 00DE            ?_write_EEPROM 0070  
      interrupt_function 0004                 _IOCBbits 0096                 _PIE1bits 008C  
               _PIR1bits 000C               _ADCON0bits 001F               _ADCON1bits 009F  
         ??_write_EEPROM 0071                 _WPUBbits 0095               _EECON1bits 018C  
            _read_EEPROM 00D1               _INTCONbits 000B                 intlevel1 0000  
   __end_of_write_EEPROM 00D1               _OSCCONbits 008F  
